target datalayout = "e-m:e-p270:32:32-p271:32:32-p272:64:64-i64:64-i128:128-f80:128-n8:16:32:64-S128"
target triple = "x86_64-unknown-linux-gnu"

%"class.cvc5::internal::prop::SatLiteral" = type { i64 }
%"struct.cvc5::internal::Minisat::Lit" = type { i32 }

@_ZN4cvc58internal4propL15undefSatLiteralE = internal global %"class.cvc5::internal::prop::SatLiteral" zeroinitializer, align 8
@_ZN4cvc58internal7MinisatL9lit_UndefE = internal constant %"struct.cvc5::internal::Minisat::Lit" { i32 -2 }, align 4

; Function Attrs: mustprogress nounwind uwtable
define linkonce_odr hidden i32 @_ZN4cvc58internal7Minisat5mkLitEib(i32 noundef %var, i1 noundef zeroext %sign) #4 comdat {
entry:
  %retval = alloca %"struct.cvc5::internal::Minisat::Lit", align 4
  %var.addr = alloca i32, align 4
  %sign.addr = alloca i8, align 1
  store i32 %var, ptr %var.addr, align 4
  %frombool = zext i1 %sign to i8
  store i8 %frombool, ptr %sign.addr, align 1
  %0 = load i32, ptr %var.addr, align 4
  %1 = load i32, ptr %var.addr, align 4
  %add = add nsw i32 %0, %1
  %2 = load i8, ptr %sign.addr, align 1
  %tobool = trunc i8 %2 to i1
  %conv = zext i1 %tobool to i32
  %add1 = add nsw i32 %add, %conv
  %x = getelementptr inbounds %"struct.cvc5::internal::Minisat::Lit", ptr %retval, i32 0, i32 0
  store i32 %add1, ptr %x, align 4
  %coerce.dive = getelementptr inbounds %"struct.cvc5::internal::Minisat::Lit", ptr %retval, i32 0, i32 0
  %3 = load i32, ptr %coerce.dive, align 4
  ret i32 %3
}

; Function Attrs: mustprogress nounwind uwtable
define linkonce_odr hidden noundef zeroext i1 @_ZNK4cvc58internal4prop10SatLiteral9isNegatedEv(ptr noundef nonnull align 8 dereferenceable(8) %this) #4 comdat align 2 {
entry:
  %this.addr = alloca ptr, align 8
  store ptr %this, ptr %this.addr, align 8
  %this1 = load ptr, ptr %this.addr, align 8
  %d_value = getelementptr inbounds %"class.cvc5::internal::prop::SatLiteral", ptr %this1, i32 0, i32 0
  %0 = load i64, ptr %d_value, align 8
  %and = and i64 %0, 1
  %tobool = icmp ne i64 %and, 0
  ret i1 %tobool
}

; Function Attrs: mustprogress nounwind uwtable
define linkonce_odr hidden noundef i64 @_ZNK4cvc58internal4prop10SatLiteral14getSatVariableEv(ptr noundef nonnull align 8 dereferenceable(8) %this) #4 comdat align 2 {
entry:
  %this.addr = alloca ptr, align 8
  store ptr %this, ptr %this.addr, align 8
  %this1 = load ptr, ptr %this.addr, align 8
  %d_value = getelementptr inbounds %"class.cvc5::internal::prop::SatLiteral", ptr %this1, i32 0, i32 0
  %0 = load i64, ptr %d_value, align 8
  %shr = lshr i64 %0, 1
  ret i64 %shr
}

; Function Attrs: mustprogress nounwind uwtable
define linkonce_odr hidden noundef zeroext i1 @_ZNK4cvc58internal4prop10SatLiteraleqERKS2_(ptr noundef nonnull align 8 dereferenceable(8) %this, ptr noundef nonnull align 8 dereferenceable(8) %other) #4 comdat align 2 {
entry:
  %this.addr = alloca ptr, align 8
  %other.addr = alloca ptr, align 8
  store ptr %this, ptr %this.addr, align 8
  store ptr %other, ptr %other.addr, align 8
  %this1 = load ptr, ptr %this.addr, align 8
  %d_value = getelementptr inbounds %"class.cvc5::internal::prop::SatLiteral", ptr %this1, i32 0, i32 0
  %0 = load i64, ptr %d_value, align 8
  %1 = load ptr, ptr %other.addr, align 8
  %d_value2 = getelementptr inbounds %"class.cvc5::internal::prop::SatLiteral", ptr %1, i32 0, i32 0
  %2 = load i64, ptr %d_value2, align 8
  %cmp = icmp eq i64 %0, %2
  ret i1 %cmp
}

; Function Attrs: mustprogress uwtable
define hidden i32 @_ZN4cvc58internal4prop16MinisatSatSolver12toMinisatLitENS1_10SatLiteralE(i64 %lit.coerce) #5 align 2 {
entry:
  %retval = alloca %"struct.cvc5::internal::Minisat::Lit", align 4
  %lit = alloca %"class.cvc5::internal::prop::SatLiteral", align 8
  %coerce.dive = getelementptr inbounds %"class.cvc5::internal::prop::SatLiteral", ptr %lit, i32 0, i32 0
  store i64 %lit.coerce, ptr %coerce.dive, align 8
  %call = call noundef zeroext i1 @_ZNK4cvc58internal4prop10SatLiteraleqERKS2_(ptr noundef nonnull align 8 dereferenceable(8) %lit, ptr noundef nonnull align 8 dereferenceable(8) @_ZN4cvc58internal4propL15undefSatLiteralE)
  br i1 %call, label %if.then, label %if.end

if.then:                                          ; preds = %entry
  call void @llvm.memcpy.p0.p0.i64(ptr align 4 %retval, ptr align 4 @_ZN4cvc58internal7MinisatL9lit_UndefE, i64 4, i1 false)
  br label %return

if.end:                                           ; preds = %entry
  %call1 = call noundef i64 @_ZNK4cvc58internal4prop10SatLiteral14getSatVariableEv(ptr noundef nonnull align 8 dereferenceable(8) %lit)
  %conv = trunc i64 %call1 to i32
  %call2 = call noundef zeroext i1 @_ZNK4cvc58internal4prop10SatLiteral9isNegatedEv(ptr noundef nonnull align 8 dereferenceable(8) %lit)
  %call3 = call i32 @_ZN4cvc58internal7Minisat5mkLitEib(i32 noundef %conv, i1 noundef zeroext %call2)
  %coerce.dive4 = getelementptr inbounds %"struct.cvc5::internal::Minisat::Lit", ptr %retval, i32 0, i32 0
  store i32 %call3, ptr %coerce.dive4, align 4
  br label %return

return:                                           ; preds = %if.end, %if.then
  %coerce.dive5 = getelementptr inbounds %"struct.cvc5::internal::Minisat::Lit", ptr %retval, i32 0, i32 0
  %0 = load i32, ptr %coerce.dive5, align 4
  ret i32 %0
}