; Function Attrs: mustprogress nofree norecurse nosync nounwind willreturn memory(read, argmem: none, inaccessiblemem: none) uwtable
define hidden i32 @_ZN4cvc58internal4prop16MinisatSatSolver12toMinisatLitENS1_10SatLiteralE(i64 %lit.coerce) local_unnamed_addr #11 align 2 {
entry:
  %.b = load i1, ptr @_ZN4cvc58internal4propL15undefSatLiteralE.0, align 8
  %0 = select i1 %.b, i64 -2, i64 0
  %cmp.i = icmp eq i64 %0, %lit.coerce
  %tr.sh.diff = trunc i64 %lit.coerce to i32
  %retval.sroa.0.0 = select i1 %cmp.i, i32 -2, i32 %tr.sh.diff
  ret i32 %retval.sroa.0.0
}